target datalayout = "e-m:e-p270:32:32-p271:32:32-p272:64:64-i64:64-i128:128-f80:128-n8:16:32:64-S128"
target triple = "x86_64-pc-linux-gnu"

%struct.wpacket_st = type { ptr, ptr, i64, i64, i64, ptr, i8 }
%struct.buf_mem_st = type { i64, ptr, i64, i64 }

@.str = private unnamed_addr constant [30 x i8] c"../openssl/test/wpackettest.c\00", align 1
@buf = internal global ptr null, align 8
@.str.11 = private unnamed_addr constant [24 x i8] c"WPACKET_init(&pkt, buf)\00", align 1
@.str.12 = private unnamed_addr constant [33 x i8] c"WPACKET_put_bytes_u8(&pkt, 0xff)\00", align 1
@.str.14 = private unnamed_addr constant [21 x i8] c"WPACKET_finish(&pkt)\00", align 1
@.str.15 = private unnamed_addr constant [42 x i8] c"WPACKET_get_total_written(&pkt, &written)\00", align 1
@.str.16 = private unnamed_addr constant [10 x i8] c"buf->data\00", align 1
@.str.18 = private unnamed_addr constant [31 x i8] c"WPACKET_init_len(&pkt, buf, 1)\00", align 1
@.str.19 = private unnamed_addr constant [8 x i8] c"simple2\00", align 1
@simple2 = internal constant [2 x i8] c"\01\FF", align 1
@.str.30 = private unnamed_addr constant [37 x i8] c"WPACKET_set_max_size(&pkt, SIZE_MAX)\00", align 1
@.str.31 = private unnamed_addr constant [40 x i8] c"WPACKET_set_max_size(&pkt, SIZE_MAX -1)\00", align 1
@.str.32 = private unnamed_addr constant [30 x i8] c"WPACKET_set_max_size(&pkt, 0)\00", align 1
@.str.33 = private unnamed_addr constant [35 x i8] c"WPACKET_set_max_size(&pkt, 0x0101)\00", align 1
@.str.34 = private unnamed_addr constant [35 x i8] c"WPACKET_set_max_size(&pkt, 0x0100)\00", align 1
@.str.35 = private unnamed_addr constant [33 x i8] c"WPACKET_set_max_size(&pkt, 0x01)\00", align 1
@.str.36 = private unnamed_addr constant [33 x i8] c"WPACKET_set_max_size(&pkt, 0x02)\00", align 1

; Function Attrs: nounwind uwtable
define internal i32 @cleanup(ptr noundef %0) #0 {
  %2 = alloca ptr, align 8
  store ptr %0, ptr %2, align 8, !tbaa !22
  %3 = load ptr, ptr %2, align 8, !tbaa !22
  call void @WPACKET_cleanup(ptr noundef %3)
  ret i32 0
}

; Function Attrs: nounwind uwtable
define internal i32 @test_WPACKET_set_max_size() #0 {
  %1 = alloca i32, align 4
  %2 = alloca %struct.wpacket_st, align 8
  %3 = alloca i64, align 8
  %4 = alloca i32, align 4
  call void @llvm.lifetime.start.p0(i64 56, ptr %2) #6
  call void @llvm.lifetime.start.p0(i64 8, ptr %3) #6
  %5 = load ptr, ptr @buf, align 8, !tbaa !4
  %6 = call i32 @WPACKET_init(ptr noundef %2, ptr noundef %5)
  %7 = icmp ne i32 %6, 0
  %8 = zext i1 %7 to i32
  %9 = call i32 @test_true(ptr noundef @.str, i32 noundef 146, ptr noundef @.str.11, i32 noundef %8)
  %10 = icmp ne i32 %9, 0
  br i1 %10, label %11, label %35

11:                                               ; preds = %0
  %12 = call i32 @WPACKET_set_max_size(ptr noundef %2, i64 noundef -1)
  %13 = icmp ne i32 %12, 0
  %14 = zext i1 %13 to i32
  %15 = call i32 @test_true(ptr noundef @.str, i32 noundef 151, ptr noundef @.str.30, i32 noundef %14)
  %16 = icmp ne i32 %15, 0
  br i1 %16, label %17, label %35

17:                                               ; preds = %11
  %18 = call i32 @WPACKET_set_max_size(ptr noundef %2, i64 noundef -2)
  %19 = icmp ne i32 %18, 0
  %20 = zext i1 %19 to i32
  %21 = call i32 @test_true(ptr noundef @.str, i32 noundef 153, ptr noundef @.str.31, i32 noundef %20)
  %22 = icmp ne i32 %21, 0
  br i1 %22, label %23, label %35

23:                                               ; preds = %17
  %24 = call i32 @WPACKET_set_max_size(ptr noundef %2, i64 noundef -1)
  %25 = icmp ne i32 %24, 0
  %26 = zext i1 %25 to i32
  %27 = call i32 @test_true(ptr noundef @.str, i32 noundef 155, ptr noundef @.str.30, i32 noundef %26)
  %28 = icmp ne i32 %27, 0
  br i1 %28, label %29, label %35

29:                                               ; preds = %23
  %30 = call i32 @WPACKET_finish(ptr noundef %2)
  %31 = icmp ne i32 %30, 0
  %32 = zext i1 %31 to i32
  %33 = call i32 @test_true(ptr noundef @.str, i32 noundef 156, ptr noundef @.str.14, i32 noundef %32)
  %34 = icmp ne i32 %33, 0
  br i1 %34, label %37, label %35

35:                                               ; preds = %29, %23, %17, %11, %0
  %36 = call i32 @cleanup(ptr noundef %2)
  store i32 %36, ptr %1, align 4
  store i32 1, ptr %4, align 4
  br label %114

37:                                               ; preds = %29
  %38 = load ptr, ptr @buf, align 8, !tbaa !4
  %39 = call i32 @WPACKET_init_len(ptr noundef %2, ptr noundef %38, i64 noundef 1)
  %40 = icmp ne i32 %39, 0
  %41 = zext i1 %40 to i32
  %42 = call i32 @test_true(ptr noundef @.str, i32 noundef 159, ptr noundef @.str.18, i32 noundef %41)
  %43 = icmp ne i32 %42, 0
  br i1 %43, label %44, label %111

44:                                               ; preds = %37
  %45 = call i32 @WPACKET_set_max_size(ptr noundef %2, i64 noundef 0)
  %46 = icmp ne i32 %45, 0
  %47 = zext i1 %46 to i32
  %48 = call i32 @test_false(ptr noundef @.str, i32 noundef 164, ptr noundef @.str.32, i32 noundef %47)
  %49 = icmp ne i32 %48, 0
  br i1 %49, label %50, label %111

50:                                               ; preds = %44
  %51 = call i32 @WPACKET_set_max_size(ptr noundef %2, i64 noundef 257)
  %52 = icmp ne i32 %51, 0
  %53 = zext i1 %52 to i32
  %54 = call i32 @test_false(ptr noundef @.str, i32 noundef 169, ptr noundef @.str.33, i32 noundef %53)
  %55 = icmp ne i32 %54, 0
  br i1 %55, label %56, label %111

56:                                               ; preds = %50
  %57 = call i32 @WPACKET_set_max_size(ptr noundef %2, i64 noundef 256)
  %58 = icmp ne i32 %57, 0
  %59 = zext i1 %58 to i32
  %60 = call i32 @test_true(ptr noundef @.str, i32 noundef 171, ptr noundef @.str.34, i32 noundef %59)
  %61 = icmp ne i32 %60, 0
  br i1 %61, label %62, label %111

62:                                               ; preds = %56
  %63 = call i32 @WPACKET_set_max_size(ptr noundef %2, i64 noundef 1)
  %64 = icmp ne i32 %63, 0
  %65 = zext i1 %64 to i32
  %66 = call i32 @test_true(ptr noundef @.str, i32 noundef 173, ptr noundef @.str.35, i32 noundef %65)
  %67 = icmp ne i32 %66, 0
  br i1 %67, label %68, label %111

68:                                               ; preds = %62
  %69 = call i32 @WPACKET_put_bytes__(ptr noundef %2, i64 noundef 255, i64 noundef 1)
  %70 = icmp ne i32 %69, 0
  %71 = zext i1 %70 to i32
  %72 = call i32 @test_false(ptr noundef @.str, i32 noundef 175, ptr noundef @.str.12, i32 noundef %71)
  %73 = icmp ne i32 %72, 0
  br i1 %73, label %74, label %111

74:                                               ; preds = %68
  %75 = call i32 @WPACKET_set_max_size(ptr noundef %2, i64 noundef 2)
  %76 = icmp ne i32 %75, 0
  %77 = zext i1 %76 to i32
  %78 = call i32 @test_true(ptr noundef @.str, i32 noundef 177, ptr noundef @.str.36, i32 noundef %77)
  %79 = icmp ne i32 %78, 0
  br i1 %79, label %80, label %111

80:                                               ; preds = %74
  %81 = call i32 @WPACKET_put_bytes__(ptr noundef %2, i64 noundef 255, i64 noundef 1)
  %82 = icmp ne i32 %81, 0
  %83 = zext i1 %82 to i32
  %84 = call i32 @test_true(ptr noundef @.str, i32 noundef 178, ptr noundef @.str.12, i32 noundef %83)
  %85 = icmp ne i32 %84, 0
  br i1 %85, label %86, label %111

86:                                               ; preds = %80
  %87 = call i32 @WPACKET_put_bytes__(ptr noundef %2, i64 noundef 255, i64 noundef 1)
  %88 = icmp ne i32 %87, 0
  %89 = zext i1 %88 to i32
  %90 = call i32 @test_false(ptr noundef @.str, i32 noundef 179, ptr noundef @.str.12, i32 noundef %89)
  %91 = icmp ne i32 %90, 0
  br i1 %91, label %92, label %111

92:                                               ; preds = %86
  %93 = call i32 @WPACKET_finish(ptr noundef %2)
  %94 = icmp ne i32 %93, 0
  %95 = zext i1 %94 to i32
  %96 = call i32 @test_true(ptr noundef @.str, i32 noundef 180, ptr noundef @.str.14, i32 noundef %95)
  %97 = icmp ne i32 %96, 0
  br i1 %97, label %98, label %111

98:                                               ; preds = %92
  %99 = call i32 @WPACKET_get_total_written(ptr noundef %2, ptr noundef %3)
  %100 = icmp ne i32 %99, 0
  %101 = zext i1 %100 to i32
  %102 = call i32 @test_true(ptr noundef @.str, i32 noundef 181, ptr noundef @.str.15, i32 noundef %101)
  %103 = icmp ne i32 %102, 0
  br i1 %103, label %104, label %111

104:                                              ; preds = %98
  %105 = load ptr, ptr @buf, align 8, !tbaa !4
  %106 = getelementptr inbounds nuw %struct.buf_mem_st, ptr %105, i32 0, i32 1
  %107 = load ptr, ptr %106, align 8, !tbaa !9
  %108 = load i64, ptr %3, align 8, !tbaa !13
  %109 = call i32 @test_mem_eq(ptr noundef @.str, i32 noundef 182, ptr noundef @.str.16, ptr noundef @.str.19, ptr noundef %107, i64 noundef %108, ptr noundef @simple2, i64 noundef 2)
  %110 = icmp ne i32 %109, 0
  br i1 %110, label %113, label %111

111:                                              ; preds = %104, %98, %92, %86, %80, %74, %68, %62, %56, %50, %44, %37
  %112 = call i32 @cleanup(ptr noundef %2)
  store i32 %112, ptr %1, align 4
  store i32 1, ptr %4, align 4
  br label %114

113:                                              ; preds = %104
  store i32 1, ptr %1, align 4
  store i32 1, ptr %4, align 4
  br label %114

114:                                              ; preds = %113, %111, %35
  call void @llvm.lifetime.end.p0(i64 8, ptr %3) #6
  call void @llvm.lifetime.end.p0(i64 56, ptr %2) #6
  %115 = load i32, ptr %1, align 4
  ret i32 %115
}