; Function Attrs: nounwind uwtable
define internal range(i32 0, 2) i32 @test_WPACKET_set_max_size() #0 {
  %1 = alloca %struct.wpacket_st, align 8
  %2 = alloca i64, align 8
  call void @llvm.lifetime.start.p0(i64 56, ptr nonnull %1) #4
  call void @llvm.lifetime.start.p0(i64 8, ptr nonnull %2) #4
  %3 = load ptr, ptr @buf, align 8, !tbaa !4
  %4 = call i32 @WPACKET_init(ptr noundef nonnull %1, ptr noundef %3) #4
  %5 = icmp ne i32 %4, 0
  %6 = zext i1 %5 to i32
  %7 = call i32 @test_true(ptr noundef nonnull @.str, i32 noundef 146, ptr noundef nonnull @.str.11, i32 noundef %6) #4
  %.not = icmp eq i32 %7, 0
  br i1 %.not, label %.sink.split, label %8

8:                                                ; preds = %0
  %9 = call i32 @WPACKET_set_max_size(ptr noundef nonnull %1, i64 noundef -1) #4
  %10 = icmp ne i32 %9, 0
  %11 = zext i1 %10 to i32
  %12 = call i32 @test_true(ptr noundef nonnull @.str, i32 noundef 151, ptr noundef nonnull @.str.30, i32 noundef %11) #4
  %.not1 = icmp eq i32 %12, 0
  br i1 %.not1, label %.sink.split, label %13

13:                                               ; preds = %8
  %14 = call i32 @WPACKET_set_max_size(ptr noundef nonnull %1, i64 noundef -2) #4
  %15 = icmp ne i32 %14, 0
  %16 = zext i1 %15 to i32
  %17 = call i32 @test_true(ptr noundef nonnull @.str, i32 noundef 153, ptr noundef nonnull @.str.31, i32 noundef %16) #4
  %.not2 = icmp eq i32 %17, 0
  br i1 %.not2, label %.sink.split, label %18

18:                                               ; preds = %13
  %19 = call i32 @WPACKET_set_max_size(ptr noundef nonnull %1, i64 noundef -1) #4
  %20 = icmp ne i32 %19, 0
  %21 = zext i1 %20 to i32
  %22 = call i32 @test_true(ptr noundef nonnull @.str, i32 noundef 155, ptr noundef nonnull @.str.30, i32 noundef %21) #4
  %.not3 = icmp eq i32 %22, 0
  br i1 %.not3, label %.sink.split, label %23

23:                                               ; preds = %18
  %24 = call i32 @WPACKET_finish(ptr noundef nonnull %1) #4
  %25 = icmp ne i32 %24, 0
  %26 = zext i1 %25 to i32
  %27 = call i32 @test_true(ptr noundef nonnull @.str, i32 noundef 156, ptr noundef nonnull @.str.14, i32 noundef %26) #4
  %.not4 = icmp eq i32 %27, 0
  br i1 %.not4, label %.sink.split, label %28

28:                                               ; preds = %23
  %29 = load ptr, ptr @buf, align 8, !tbaa !4
  %30 = call i32 @WPACKET_init_len(ptr noundef nonnull %1, ptr noundef %29, i64 noundef 1) #4
  %31 = icmp ne i32 %30, 0
  %32 = zext i1 %31 to i32
  %33 = call i32 @test_true(ptr noundef nonnull @.str, i32 noundef 159, ptr noundef nonnull @.str.18, i32 noundef %32) #4
  %.not5 = icmp eq i32 %33, 0
  br i1 %.not5, label %.sink.split, label %34

34:                                               ; preds = %28
  %35 = call i32 @WPACKET_set_max_size(ptr noundef nonnull %1, i64 noundef 0) #4
  %36 = icmp ne i32 %35, 0
  %37 = zext i1 %36 to i32
  %38 = call i32 @test_false(ptr noundef nonnull @.str, i32 noundef 164, ptr noundef nonnull @.str.32, i32 noundef %37) #4
  %.not6 = icmp eq i32 %38, 0
  br i1 %.not6, label %.sink.split, label %39

39:                                               ; preds = %34
  %40 = call i32 @WPACKET_set_max_size(ptr noundef nonnull %1, i64 noundef 257) #4
  %41 = icmp ne i32 %40, 0
  %42 = zext i1 %41 to i32
  %43 = call i32 @test_false(ptr noundef nonnull @.str, i32 noundef 169, ptr noundef nonnull @.str.33, i32 noundef %42) #4
  %.not7 = icmp eq i32 %43, 0
  br i1 %.not7, label %.sink.split, label %44

44:                                               ; preds = %39
  %45 = call i32 @WPACKET_set_max_size(ptr noundef nonnull %1, i64 noundef 256) #4
  %46 = icmp ne i32 %45, 0
  %47 = zext i1 %46 to i32
  %48 = call i32 @test_true(ptr noundef nonnull @.str, i32 noundef 171, ptr noundef nonnull @.str.34, i32 noundef %47) #4
  %.not8 = icmp eq i32 %48, 0
  br i1 %.not8, label %.sink.split, label %49

49:                                               ; preds = %44
  %50 = call i32 @WPACKET_set_max_size(ptr noundef nonnull %1, i64 noundef 1) #4
  %51 = icmp ne i32 %50, 0
  %52 = zext i1 %51 to i32
  %53 = call i32 @test_true(ptr noundef nonnull @.str, i32 noundef 173, ptr noundef nonnull @.str.35, i32 noundef %52) #4
  %.not9 = icmp eq i32 %53, 0
  br i1 %.not9, label %.sink.split, label %54

54:                                               ; preds = %49
  %55 = call i32 @WPACKET_put_bytes__(ptr noundef nonnull %1, i64 noundef 255, i64 noundef 1) #4
  %56 = icmp ne i32 %55, 0
  %57 = zext i1 %56 to i32
  %58 = call i32 @test_false(ptr noundef nonnull @.str, i32 noundef 175, ptr noundef nonnull @.str.12, i32 noundef %57) #4
  %.not10 = icmp eq i32 %58, 0
  br i1 %.not10, label %.sink.split, label %59

59:                                               ; preds = %54
  %60 = call i32 @WPACKET_set_max_size(ptr noundef nonnull %1, i64 noundef 2) #4
  %61 = icmp ne i32 %60, 0
  %62 = zext i1 %61 to i32
  %63 = call i32 @test_true(ptr noundef nonnull @.str, i32 noundef 177, ptr noundef nonnull @.str.36, i32 noundef %62) #4
  %.not11 = icmp eq i32 %63, 0
  br i1 %.not11, label %.sink.split, label %64

64:                                               ; preds = %59
  %65 = call i32 @WPACKET_put_bytes__(ptr noundef nonnull %1, i64 noundef 255, i64 noundef 1) #4
  %66 = icmp ne i32 %65, 0
  %67 = zext i1 %66 to i32
  %68 = call i32 @test_true(ptr noundef nonnull @.str, i32 noundef 178, ptr noundef nonnull @.str.12, i32 noundef %67) #4
  %.not12 = icmp eq i32 %68, 0
  br i1 %.not12, label %.sink.split, label %69

69:                                               ; preds = %64
  %70 = call i32 @WPACKET_put_bytes__(ptr noundef nonnull %1, i64 noundef 255, i64 noundef 1) #4
  %71 = icmp ne i32 %70, 0
  %72 = zext i1 %71 to i32
  %73 = call i32 @test_false(ptr noundef nonnull @.str, i32 noundef 179, ptr noundef nonnull @.str.12, i32 noundef %72) #4
  %.not13 = icmp eq i32 %73, 0
  br i1 %.not13, label %.sink.split, label %74

74:                                               ; preds = %69
  %75 = call i32 @WPACKET_finish(ptr noundef nonnull %1) #4
  %76 = icmp ne i32 %75, 0
  %77 = zext i1 %76 to i32
  %78 = call i32 @test_true(ptr noundef nonnull @.str, i32 noundef 180, ptr noundef nonnull @.str.14, i32 noundef %77) #4
  %.not14 = icmp eq i32 %78, 0
  br i1 %.not14, label %.sink.split, label %79

79:                                               ; preds = %74
  %80 = call i32 @WPACKET_get_total_written(ptr noundef nonnull %1, ptr noundef nonnull %2) #4
  %81 = icmp ne i32 %80, 0
  %82 = zext i1 %81 to i32
  %83 = call i32 @test_true(ptr noundef nonnull @.str, i32 noundef 181, ptr noundef nonnull @.str.15, i32 noundef %82) #4
  %.not15 = icmp eq i32 %83, 0
  br i1 %.not15, label %.sink.split, label %84

84:                                               ; preds = %79
  %85 = load ptr, ptr @buf, align 8, !tbaa !4
  %86 = getelementptr inbounds nuw i8, ptr %85, i64 8
  %87 = load ptr, ptr %86, align 8, !tbaa !9
  %88 = load i64, ptr %2, align 8, !tbaa !13
  %89 = call i32 @test_mem_eq(ptr noundef nonnull @.str, i32 noundef 182, ptr noundef nonnull @.str.16, ptr noundef nonnull @.str.19, ptr noundef %87, i64 noundef %88, ptr noundef nonnull @simple2, i64 noundef 2) #4
  %.not16 = icmp eq i32 %89, 0
  br i1 %.not16, label %.sink.split, label %90

.sink.split:                                      ; preds = %28, %34, %39, %44, %49, %54, %59, %64, %69, %74, %79, %84, %0, %8, %13, %18, %23
  call void @WPACKET_cleanup(ptr noundef nonnull %1) #4
  br label %90

90:                                               ; preds = %.sink.split, %84
  %.0 = phi i32 [ 1, %84 ], [ 0, %.sink.split ]
  call void @llvm.lifetime.end.p0(i64 8, ptr nonnull %2) #4
  call void @llvm.lifetime.end.p0(i64 56, ptr nonnull %1) #4
  ret i32 %.0
}